target datalayout = "e-m:e-p270:32:32-p271:32:32-p272:64:64-i64:64-i128:128-f80:128-n8:16:32:64-S128"
target triple = "x86_64-unknown-linux-gnu"

%"struct.EA::StdC::SprintfLocal::SnprintfContext8" = type <{ ptr, i64, i64, i8, [7 x i8] }>

; Function Attrs: mustprogress nounwind uwtable
define dso_local noundef i32 @_ZN2EA4StdC12SprintfLocal13StringWriter8EPKcmPvNS0_18WriteFunctionStateE(ptr noalias noundef %pData, i64 noundef %nCount, ptr noalias noundef %pContext8, i32 noundef %0) #0 {
entry:
  %retval = alloca i32, align 4
  %pData.addr = alloca ptr, align 8
  %nCount.addr = alloca i64, align 8
  %pContext8.addr = alloca ptr, align 8
  %.addr = alloca i32, align 4
  %pSnprintfContext8 = alloca ptr, align 8
  %nRoom = alloca i64, align 8
  %i = alloca i64, align 8
  %nClusterSize = alloca i64, align 8
  store ptr %pData, ptr %pData.addr, align 8
  store i64 %nCount, ptr %nCount.addr, align 8
  store ptr %pContext8, ptr %pContext8.addr, align 8
  store i32 %0, ptr %.addr, align 4
  %1 = load ptr, ptr %pContext8.addr, align 8
  store ptr %1, ptr %pSnprintfContext8, align 8
  %2 = load i64, ptr %nCount.addr, align 8
  %tobool = icmp ne i64 %2, 0
  br i1 %tobool, label %land.lhs.true, label %if.end31

land.lhs.true:                                    ; preds = %entry
  %3 = load ptr, ptr %pSnprintfContext8, align 8
  %mbMaxCountReached = getelementptr inbounds %"struct.EA::StdC::SprintfLocal::SnprintfContext8", ptr %3, i32 0, i32 3
  %4 = load i8, ptr %mbMaxCountReached, align 8
  %tobool1 = trunc i8 %4 to i1
  br i1 %tobool1, label %if.end31, label %if.then

if.then:                                          ; preds = %land.lhs.true
  %5 = load i64, ptr %nCount.addr, align 8
  %6 = load ptr, ptr %pSnprintfContext8, align 8
  %mnMaxCount = getelementptr inbounds %"struct.EA::StdC::SprintfLocal::SnprintfContext8", ptr %6, i32 0, i32 2
  %7 = load i64, ptr %mnMaxCount, align 8
  %8 = load ptr, ptr %pSnprintfContext8, align 8
  %mnCount = getelementptr inbounds %"struct.EA::StdC::SprintfLocal::SnprintfContext8", ptr %8, i32 0, i32 1
  %9 = load i64, ptr %mnCount, align 8
  %sub = sub i64 %7, %9
  %cmp = icmp ugt i64 %5, %sub
  br i1 %cmp, label %if.then2, label %if.end26

if.then2:                                         ; preds = %if.then
  %10 = load ptr, ptr %pSnprintfContext8, align 8
  %mbMaxCountReached3 = getelementptr inbounds %"struct.EA::StdC::SprintfLocal::SnprintfContext8", ptr %10, i32 0, i32 3
  store i8 1, ptr %mbMaxCountReached3, align 8
  %11 = load ptr, ptr %pSnprintfContext8, align 8
  %mnMaxCount4 = getelementptr inbounds %"struct.EA::StdC::SprintfLocal::SnprintfContext8", ptr %11, i32 0, i32 2
  %12 = load i64, ptr %mnMaxCount4, align 8
  %13 = load ptr, ptr %pSnprintfContext8, align 8
  %mnCount5 = getelementptr inbounds %"struct.EA::StdC::SprintfLocal::SnprintfContext8", ptr %13, i32 0, i32 1
  %14 = load i64, ptr %mnCount5, align 8
  %sub6 = sub i64 %12, %14
  store i64 %sub6, ptr %nRoom, align 8
  store i64 0, ptr %i, align 8
  br label %while.cond

while.cond:                                       ; preds = %if.end24, %if.then2
  %15 = load i64, ptr %i, align 8
  %16 = load i64, ptr %nCount.addr, align 8
  %cmp7 = icmp ult i64 %15, %16
  br i1 %cmp7, label %while.body, label %while.end

while.body:                                       ; preds = %while.cond
  %17 = load ptr, ptr %pData.addr, align 8
  %18 = load i64, ptr %i, align 8
  %arrayidx = getelementptr inbounds i8, ptr %17, i64 %18
  %19 = load i8, ptr %arrayidx, align 1
  %conv = zext i8 %19 to i32
  %cmp8 = icmp slt i32 %conv, 194
  br i1 %cmp8, label %if.then9, label %if.else

if.then9:                                         ; preds = %while.body
  store i64 1, ptr %nClusterSize, align 8
  br label %if.end21

if.else:                                          ; preds = %while.body
  %20 = load ptr, ptr %pData.addr, align 8
  %21 = load i64, ptr %i, align 8
  %arrayidx10 = getelementptr inbounds i8, ptr %20, i64 %21
  %22 = load i8, ptr %arrayidx10, align 1
  %conv11 = zext i8 %22 to i32
  %cmp12 = icmp slt i32 %conv11, 224
  br i1 %cmp12, label %if.then13, label %if.else14

if.then13:                                        ; preds = %if.else
  store i64 2, ptr %nClusterSize, align 8
  br label %if.end20

if.else14:                                        ; preds = %if.else
  %23 = load ptr, ptr %pData.addr, align 8
  %24 = load i64, ptr %i, align 8
  %arrayidx15 = getelementptr inbounds i8, ptr %23, i64 %24
  %25 = load i8, ptr %arrayidx15, align 1
  %conv16 = zext i8 %25 to i32
  %cmp17 = icmp slt i32 %conv16, 240
  br i1 %cmp17, label %if.then18, label %if.else19

if.then18:                                        ; preds = %if.else14
  store i64 3, ptr %nClusterSize, align 8
  br label %if.end

if.else19:                                        ; preds = %if.else14
  br label %while.end

if.end:                                           ; preds = %if.then18
  br label %if.end20

if.end20:                                         ; preds = %if.end, %if.then13
  br label %if.end21

if.end21:                                         ; preds = %if.end20, %if.then9
  %26 = load i64, ptr %i, align 8
  %27 = load i64, ptr %nClusterSize, align 8
  %add = add i64 %26, %27
  %28 = load i64, ptr %nRoom, align 8
  %cmp22 = icmp ugt i64 %add, %28
  br i1 %cmp22, label %if.then23, label %if.end24

if.then23:                                        ; preds = %if.end21
  br label %while.end

if.end24:                                         ; preds = %if.end21
  %29 = load i64, ptr %nClusterSize, align 8
  %30 = load i64, ptr %i, align 8
  %add25 = add i64 %30, %29
  store i64 %add25, ptr %i, align 8
  br label %while.cond, !llvm.loop !5

while.end:                                        ; preds = %if.then23, %if.else19, %while.cond
  %31 = load i64, ptr %i, align 8
  store i64 %31, ptr %nCount.addr, align 8
  br label %if.end26

if.end26:                                         ; preds = %while.end, %if.then
  %32 = load ptr, ptr %pSnprintfContext8, align 8
  %mpDestination = getelementptr inbounds %"struct.EA::StdC::SprintfLocal::SnprintfContext8", ptr %32, i32 0, i32 0
  %33 = load ptr, ptr %mpDestination, align 8
  %34 = load ptr, ptr %pSnprintfContext8, align 8
  %mnCount27 = getelementptr inbounds %"struct.EA::StdC::SprintfLocal::SnprintfContext8", ptr %34, i32 0, i32 1
  %35 = load i64, ptr %mnCount27, align 8
  %add.ptr = getelementptr inbounds i8, ptr %33, i64 %35
  %36 = load ptr, ptr %pData.addr, align 8
  %37 = load i64, ptr %nCount.addr, align 8
  %mul = mul i64 %37, 1
  call void @llvm.memcpy.p0.p0.i64(ptr align 1 %add.ptr, ptr align 1 %36, i64 %mul, i1 false)
  %38 = load i64, ptr %nCount.addr, align 8
  %39 = load ptr, ptr %pSnprintfContext8, align 8
  %mnCount28 = getelementptr inbounds %"struct.EA::StdC::SprintfLocal::SnprintfContext8", ptr %39, i32 0, i32 1
  %40 = load i64, ptr %mnCount28, align 8
  %add29 = add i64 %40, %38
  store i64 %add29, ptr %mnCount28, align 8
  %41 = load i64, ptr %nCount.addr, align 8
  %conv30 = trunc i64 %41 to i32
  store i32 %conv30, ptr %retval, align 4
  br label %return

if.end31:                                         ; preds = %land.lhs.true, %entry
  store i32 0, ptr %retval, align 4
  br label %return

return:                                           ; preds = %if.end31, %if.end26
  %42 = load i32, ptr %retval, align 4
  ret i32 %42
}