; Function Attrs: mustprogress nofree norecurse nosync nounwind memory(readwrite, inaccessiblemem: none) uwtable
define dso_local noundef i32 @_ZN2EA4StdC12SprintfLocal13StringWriter8EPKcmPvNS0_18WriteFunctionStateE(ptr noalias noundef readonly captures(none) %pData, i64 noundef %nCount, ptr noalias noundef captures(none) %pContext8, i32 noundef %0) local_unnamed_addr #0 {
entry:
  %tobool.not = icmp eq i64 %nCount, 0
  br i1 %tobool.not, label %return, label %land.lhs.true

land.lhs.true:                                    ; preds = %entry
  %mbMaxCountReached = getelementptr inbounds nuw i8, ptr %pContext8, i64 24
  %1 = load i8, ptr %mbMaxCountReached, align 8
  %tobool1 = trunc i8 %1 to i1
  br i1 %tobool1, label %return, label %if.then

if.then:                                          ; preds = %land.lhs.true
  %mnMaxCount = getelementptr inbounds nuw i8, ptr %pContext8, i64 16
  %2 = load i64, ptr %mnMaxCount, align 8
  %mnCount = getelementptr inbounds nuw i8, ptr %pContext8, i64 8
  %3 = load i64, ptr %mnCount, align 8
  %sub = sub i64 %2, %3
  %cmp = icmp ugt i64 %nCount, %sub
  br i1 %cmp, label %if.then2, label %if.end26

if.then2:                                         ; preds = %if.then
  store i8 1, ptr %mbMaxCountReached, align 8
  br label %while.cond

while.cond:                                       ; preds = %if.end21, %if.then2
  %i.0 = phi i64 [ 0, %if.then2 ], [ %add, %if.end21 ]
  %cmp7 = icmp ult i64 %i.0, %nCount
  br i1 %cmp7, label %while.body, label %if.end26

while.body:                                       ; preds = %while.cond
  %arrayidx = getelementptr inbounds i8, ptr %pData, i64 %i.0
  %4 = load i8, ptr %arrayidx, align 1
  %cmp8 = icmp ult i8 %4, -62
  br i1 %cmp8, label %if.end21, label %if.else

if.else:                                          ; preds = %while.body
  %cmp12 = icmp samesign ult i8 %4, -32
  br i1 %cmp12, label %if.end21, label %if.else14

if.else14:                                        ; preds = %if.else
  %cmp17 = icmp samesign ult i8 %4, -16
  br i1 %cmp17, label %if.end21, label %if.end26

if.end21:                                         ; preds = %if.else14, %if.else, %while.body
  %nClusterSize.0 = phi i64 [ 1, %while.body ], [ 2, %if.else ], [ 3, %if.else14 ]
  %add = add i64 %nClusterSize.0, %i.0
  %cmp22 = icmp ugt i64 %add, %sub
  br i1 %cmp22, label %if.end26, label %while.cond, !llvm.loop !5

if.end26:                                         ; preds = %while.cond, %if.else14, %if.end21, %if.then
  %nCount.addr.0 = phi i64 [ %nCount, %if.then ], [ %i.0, %if.end21 ], [ %i.0, %if.else14 ], [ %i.0, %while.cond ]
  %5 = load ptr, ptr %pContext8, align 8
  %add.ptr = getelementptr inbounds i8, ptr %5, i64 %3
  tail call void @llvm.memcpy.p0.p0.i64(ptr align 1 %add.ptr, ptr align 1 %pData, i64 %nCount.addr.0, i1 false)
  %add29 = add i64 %nCount.addr.0, %3
  store i64 %add29, ptr %mnCount, align 8
  %conv30 = trunc i64 %nCount.addr.0 to i32
  br label %return

return:                                           ; preds = %entry, %land.lhs.true, %if.end26
  %retval.0 = phi i32 [ %conv30, %if.end26 ], [ 0, %land.lhs.true ], [ 0, %entry ]
  ret i32 %retval.0
}